target datalayout = "e-m:e-p270:32:32-p271:32:32-p272:64:64-i64:64-i128:128-f80:128-n8:16:32:64-S128"
target triple = "x86_64-pc-linux-gnu"

%struct.H5FD_log_fapl_t = type { ptr, i64, i64 }
%struct.H5CX_node_t = type { %struct.H5CX_t, ptr }
%struct.H5CX_t = type { i64, ptr, i64, ptr, i64, ptr, i64, ptr, i64, ptr, i64, ptr, i64, i32, i64, i8, ptr, i8, ptr, i8, i32, i8, [3 x double], i8, i64, i8, i32, i8, %struct.H5Z_cb_t, i8, ptr, i8, %struct.H5T_vlen_alloc_info_t, i8, %struct.H5T_conv_cb_t, i8, i32, i8, i8, i8, i32, i8, i8, i32, i8, i8, i32, i8, i32, i8, i64, i8, i8, i8, i8, i8, ptr, i8, ptr, i8, i32, i8, i32, i8, %struct.H5VL_connector_prop_t, i8, ptr, i8 }
%struct.H5Z_cb_t = type { ptr, ptr }
%struct.H5T_vlen_alloc_info_t = type { ptr, ptr, ptr, ptr }
%struct.H5T_conv_cb_t = type { ptr, ptr }
%struct.H5VL_connector_prop_t = type { ptr, ptr }

@H5FD_LOG_id_g = global i64 -1, align 8
@H5FD_init_g = external global i8, align 1
@H5_libterm_g = external global i8, align 1
@.str = private unnamed_addr constant [101 x i8] c"generated/home/dtcxzyw/WorkSpace/Projects/compilers/llvm-opt-benchmark/bench/hdf5/hdf5/src/H5FDlog.c\00", align 1
@H5_libinit_g = external global i8, align 1
@__func__.H5Pset_fapl_log = private unnamed_addr constant [16 x i8] c"H5Pset_fapl_log\00", align 1
@H5E_FUNC_g = external global i64, align 8
@H5E_CANTINIT_g = external global i64, align 8
@.str.2 = private unnamed_addr constant [30 x i8] c"library initialization failed\00", align 1
@.str.3 = private unnamed_addr constant [32 x i8] c"interface initialization failed\00", align 1
@H5E_CANTSET_g = external global i64, align 8
@.str.4 = private unnamed_addr constant [22 x i8] c"can't set API context\00", align 1
@H5P_CLS_FILE_ACCESS_ID_g = external global i64, align 8
@H5E_ARGS_g = external global i64, align 8
@H5E_BADTYPE_g = external global i64, align 8
@.str.5 = private unnamed_addr constant [32 x i8] c"not a file access property list\00", align 1
@H5E_RESOURCE_g = external global i64, align 8
@H5E_NOSPACE_g = external global i64, align 8
@.str.6 = private unnamed_addr constant [29 x i8] c"unable to copy log file name\00", align 1

; Function Attrs: nounwind uwtable
define i32 @H5Pset_fapl_log(i64 noundef %0, ptr noundef %1, i64 noundef %2, i64 noundef %3) #0 {
  %5 = alloca i64, align 8
  %6 = alloca ptr, align 8
  %7 = alloca i64, align 8
  %8 = alloca i64, align 8
  %9 = alloca %struct.H5FD_log_fapl_t, align 8
  %10 = alloca ptr, align 8
  %11 = alloca i32, align 4
  %12 = alloca %struct.H5CX_node_t, align 8
  %13 = alloca i8, align 1
  %14 = alloca i8, align 1
  store i64 %0, ptr %5, align 8, !tbaa !11
  store ptr %1, ptr %6, align 8, !tbaa !13
  store i64 %2, ptr %7, align 8, !tbaa !16
  store i64 %3, ptr %8, align 8, !tbaa !11
  call void @llvm.lifetime.start.p0(i64 24, ptr %9) #9
  call void @llvm.lifetime.start.p0(i64 8, ptr %10) #9
  call void @llvm.lifetime.start.p0(i64 4, ptr %11) #9
  call void @llvm.lifetime.start.p0(i64 480, ptr %12) #9
  call void @llvm.memset.p0.i64(ptr align 8 %12, i8 0, i64 480, i1 false)
  call void @llvm.lifetime.start.p0(i64 1, ptr %13) #9
  store i8 0, ptr %13, align 1, !tbaa !7
  call void @llvm.lifetime.start.p0(i64 1, ptr %14) #9
  store i8 0, ptr %14, align 1, !tbaa !7
  br label %15

15:                                               ; preds = %4
  %16 = load i8, ptr @H5_libinit_g, align 1, !tbaa !7, !range !9, !noundef !10
  %17 = trunc i8 %16 to i1
  br i1 %17, label %22, label %18

18:                                               ; preds = %15
  %19 = load i8, ptr @H5_libterm_g, align 1, !tbaa !7, !range !9, !noundef !10
  %20 = trunc i8 %19 to i1
  %21 = xor i1 %20, true
  br label %22

22:                                               ; preds = %18, %15
  %23 = phi i1 [ false, %15 ], [ %21, %18 ]
  %24 = xor i1 %23, true
  %25 = xor i1 %24, true
  %26 = zext i1 %25 to i32
  %27 = sext i32 %26 to i64
  %28 = call i64 @llvm.expect.i64(i64 %27, i64 0)
  %29 = icmp ne i64 %28, 0
  br i1 %29, label %30, label %59

30:                                               ; preds = %22
  %31 = call i32 @H5_init_library()
  %32 = icmp slt i32 %31, 0
  %33 = xor i1 %32, true
  %34 = xor i1 %33, true
  %35 = zext i1 %34 to i32
  %36 = sext i32 %35 to i64
  %37 = call i64 @llvm.expect.i64(i64 %36, i64 0)
  %38 = icmp ne i64 %37, 0
  br i1 %38, label %39, label %58

39:                                               ; preds = %30
  br label %40

40:                                               ; preds = %39
  br label %41

41:                                               ; preds = %40
  br label %42

42:                                               ; preds = %41
  %43 = load i64, ptr @H5E_FUNC_g, align 8, !tbaa !11
  %44 = load i64, ptr @H5E_CANTINIT_g, align 8, !tbaa !11
  %45 = call i32 (ptr, ptr, i32, i64, i64, ptr, ...) @H5E_printf_stack(ptr noundef @.str, ptr noundef @__func__.H5Pset_fapl_log, i32 noundef 265, i64 noundef %43, i64 noundef %44, ptr noundef @.str.2)
  br label %46

46:                                               ; preds = %42
  br label %47

47:                                               ; preds = %46
  store i8 1, ptr %14, align 1, !tbaa !7
  %48 = load i8, ptr %14, align 1, !tbaa !7, !range !9, !noundef !10
  %49 = trunc i8 %48 to i1
  %50 = zext i1 %49 to i8
  store i8 %50, ptr %14, align 1, !tbaa !7
  br label %51

51:                                               ; preds = %47
  br label %52

52:                                               ; preds = %51
  br label %53

53:                                               ; preds = %52
  store i32 -1, ptr %11, align 4, !tbaa !3
  br label %191

54:                                               ; No predecessors!
  br label %55

55:                                               ; preds = %54
  br label %56

56:                                               ; preds = %55
  br label %57

57:                                               ; preds = %56
  br label %58

58:                                               ; preds = %57, %30
  br label %59

59:                                               ; preds = %58, %22
  %60 = load i8, ptr @H5FD_init_g, align 1, !tbaa !7, !range !9, !noundef !10
  %61 = trunc i8 %60 to i1
  br i1 %61, label %66, label %62

62:                                               ; preds = %59
  %63 = load i8, ptr @H5_libterm_g, align 1, !tbaa !7, !range !9, !noundef !10
  %64 = trunc i8 %63 to i1
  %65 = xor i1 %64, true
  br label %66

66:                                               ; preds = %62, %59
  %67 = phi i1 [ false, %59 ], [ %65, %62 ]
  %68 = xor i1 %67, true
  %69 = xor i1 %68, true
  %70 = zext i1 %69 to i32
  %71 = sext i32 %70 to i64
  %72 = call i64 @llvm.expect.i64(i64 %71, i64 0)
  %73 = icmp ne i64 %72, 0
  br i1 %73, label %74, label %97

74:                                               ; preds = %66
  store i8 1, ptr @H5FD_init_g, align 1, !tbaa !7
  %75 = call i32 @H5FD__init_package()
  %76 = icmp slt i32 %75, 0
  br i1 %76, label %77, label %96

77:                                               ; preds = %74
  store i8 0, ptr @H5FD_init_g, align 1, !tbaa !7
  br label %78

78:                                               ; preds = %77
  br label %79

79:                                               ; preds = %78
  br label %80

80:                                               ; preds = %79
  %81 = load i64, ptr @H5E_FUNC_g, align 8, !tbaa !11
  %82 = load i64, ptr @H5E_CANTINIT_g, align 8, !tbaa !11
  %83 = call i32 (ptr, ptr, i32, i64, i64, ptr, ...) @H5E_printf_stack(ptr noundef @.str, ptr noundef @__func__.H5Pset_fapl_log, i32 noundef 265, i64 noundef %81, i64 noundef %82, ptr noundef @.str.3)
  br label %84

84:                                               ; preds = %80
  br label %85

85:                                               ; preds = %84
  store i8 1, ptr %14, align 1, !tbaa !7
  %86 = load i8, ptr %14, align 1, !tbaa !7, !range !9, !noundef !10
  %87 = trunc i8 %86 to i1
  %88 = zext i1 %87 to i8
  store i8 %88, ptr %14, align 1, !tbaa !7
  br label %89

89:                                               ; preds = %85
  br label %90

90:                                               ; preds = %89
  br label %91

91:                                               ; preds = %90
  store i32 -1, ptr %11, align 4, !tbaa !3
  br label %191

92:                                               ; No predecessors!
  br label %93

93:                                               ; preds = %92
  br label %94

94:                                               ; preds = %93
  br label %95

95:                                               ; preds = %94
  br label %96

96:                                               ; preds = %95, %74
  br label %97

97:                                               ; preds = %96, %66
  br label %98

98:                                               ; preds = %97
  br label %99

99:                                               ; preds = %98
  br label %100

100:                                              ; preds = %99
  %101 = call i32 @H5CX_push(ptr noundef %12)
  %102 = icmp slt i32 %101, 0
  %103 = xor i1 %102, true
  %104 = xor i1 %103, true
  %105 = zext i1 %104 to i32
  %106 = sext i32 %105 to i64
  %107 = call i64 @llvm.expect.i64(i64 %106, i64 0)
  %108 = icmp ne i64 %107, 0
  br i1 %108, label %109, label %128

109:                                              ; preds = %100
  br label %110

110:                                              ; preds = %109
  br label %111

111:                                              ; preds = %110
  br label %112

112:                                              ; preds = %111
  %113 = load i64, ptr @H5E_FUNC_g, align 8, !tbaa !11
  %114 = load i64, ptr @H5E_CANTSET_g, align 8, !tbaa !11
  %115 = call i32 (ptr, ptr, i32, i64, i64, ptr, ...) @H5E_printf_stack(ptr noundef @.str, ptr noundef @__func__.H5Pset_fapl_log, i32 noundef 265, i64 noundef %113, i64 noundef %114, ptr noundef @.str.4)
  br label %116

116:                                              ; preds = %112
  br label %117

117:                                              ; preds = %116
  store i8 1, ptr %14, align 1, !tbaa !7
  %118 = load i8, ptr %14, align 1, !tbaa !7, !range !9, !noundef !10
  %119 = trunc i8 %118 to i1
  %120 = zext i1 %119 to i8
  store i8 %120, ptr %14, align 1, !tbaa !7
  br label %121

121:                                              ; preds = %117
  br label %122

122:                                              ; preds = %121
  br label %123

123:                                              ; preds = %122
  store i32 -1, ptr %11, align 4, !tbaa !3
  br label %191

124:                                              ; No predecessors!
  br label %125

125:                                              ; preds = %124
  br label %126

126:                                              ; preds = %125
  br label %127

127:                                              ; preds = %126
  br label %129

128:                                              ; preds = %100
  store i8 1, ptr %13, align 1, !tbaa !7
  br label %129

129:                                              ; preds = %128, %127
  br label %130

130:                                              ; preds = %129
  br label %131

131:                                              ; preds = %130
  %132 = call i32 @H5E_clear_stack()
  call void @llvm.memset.p0.i64(ptr align 8 %9, i8 0, i64 24, i1 false)
  %133 = load i64, ptr %5, align 8, !tbaa !11
  %134 = load i64, ptr @H5P_CLS_FILE_ACCESS_ID_g, align 8, !tbaa !11
  %135 = call ptr @H5P_object_verify(i64 noundef %133, i64 noundef %134, i1 noundef zeroext false)
  store ptr %135, ptr %10, align 8, !tbaa !18
  %136 = icmp eq ptr null, %135
  br i1 %136, label %137, label %156

137:                                              ; preds = %131
  br label %138

138:                                              ; preds = %137
  br label %139

139:                                              ; preds = %138
  br label %140

140:                                              ; preds = %139
  %141 = load i64, ptr @H5E_ARGS_g, align 8, !tbaa !11
  %142 = load i64, ptr @H5E_BADTYPE_g, align 8, !tbaa !11
  %143 = call i32 (ptr, ptr, i32, i64, i64, ptr, ...) @H5E_printf_stack(ptr noundef @.str, ptr noundef @__func__.H5Pset_fapl_log, i32 noundef 274, i64 noundef %141, i64 noundef %142, ptr noundef @.str.5)
  br label %144

144:                                              ; preds = %140
  br label %145

145:                                              ; preds = %144
  store i8 1, ptr %14, align 1, !tbaa !7
  %146 = load i8, ptr %14, align 1, !tbaa !7, !range !9, !noundef !10
  %147 = trunc i8 %146 to i1
  %148 = zext i1 %147 to i8
  store i8 %148, ptr %14, align 1, !tbaa !7
  br label %149

149:                                              ; preds = %145
  br label %150

150:                                              ; preds = %149
  br label %151

151:                                              ; preds = %150
  store i32 -1, ptr %11, align 4, !tbaa !3
  br label %191

152:                                              ; No predecessors!
  br label %153

153:                                              ; preds = %152
  br label %154

154:                                              ; preds = %153
  br label %155

155:                                              ; preds = %154
  br label %156

156:                                              ; preds = %155, %131
  %157 = load ptr, ptr %6, align 8, !tbaa !13
  %158 = icmp ne ptr %157, null
  br i1 %158, label %159, label %183

159:                                              ; preds = %156
  %160 = load ptr, ptr %6, align 8, !tbaa !13
  %161 = call noalias ptr @H5MM_xstrdup(ptr noundef %160)
  %162 = getelementptr inbounds nuw %struct.H5FD_log_fapl_t, ptr %9, i32 0, i32 0
  store ptr %161, ptr %162, align 8, !tbaa !20
  %163 = icmp eq ptr null, %161
  br i1 %163, label %164, label %183

164:                                              ; preds = %159
  br label %165

165:                                              ; preds = %164
  br label %166

166:                                              ; preds = %165
  br label %167

167:                                              ; preds = %166
  %168 = load i64, ptr @H5E_RESOURCE_g, align 8, !tbaa !11
  %169 = load i64, ptr @H5E_NOSPACE_g, align 8, !tbaa !11
  %170 = call i32 (ptr, ptr, i32, i64, i64, ptr, ...) @H5E_printf_stack(ptr noundef @.str, ptr noundef @__func__.H5Pset_fapl_log, i32 noundef 282, i64 noundef %168, i64 noundef %169, ptr noundef @.str.6)
  br label %171

171:                                              ; preds = %167
  br label %172

172:                                              ; preds = %171
  store i8 1, ptr %14, align 1, !tbaa !7
  %173 = load i8, ptr %14, align 1, !tbaa !7, !range !9, !noundef !10
  %174 = trunc i8 %173 to i1
  %175 = zext i1 %174 to i8
  store i8 %175, ptr %14, align 1, !tbaa !7
  br label %176

176:                                              ; preds = %172
  br label %177

177:                                              ; preds = %176
  br label %178

178:                                              ; preds = %177
  store i32 -1, ptr %11, align 4, !tbaa !3
  br label %191

179:                                              ; No predecessors!
  br label %180

180:                                              ; preds = %179
  br label %181

181:                                              ; preds = %180
  br label %182

182:                                              ; preds = %181
  br label %183

183:                                              ; preds = %182, %159, %156
  %184 = load i64, ptr %7, align 8, !tbaa !16
  %185 = getelementptr inbounds nuw %struct.H5FD_log_fapl_t, ptr %9, i32 0, i32 1
  store i64 %184, ptr %185, align 8, !tbaa !22
  %186 = load i64, ptr %8, align 8, !tbaa !11
  %187 = getelementptr inbounds nuw %struct.H5FD_log_fapl_t, ptr %9, i32 0, i32 2
  store i64 %186, ptr %187, align 8, !tbaa !23
  %188 = load ptr, ptr %10, align 8, !tbaa !18
  %189 = load i64, ptr @H5FD_LOG_id_g, align 8, !tbaa !11
  %190 = call i32 @H5P_set_driver(ptr noundef %188, i64 noundef %189, ptr noundef %9, ptr noundef null)
  store i32 %190, ptr %11, align 4, !tbaa !3
  br label %191

191:                                              ; preds = %183, %178, %151, %123, %91, %53
  %192 = getelementptr inbounds nuw %struct.H5FD_log_fapl_t, ptr %9, i32 0, i32 0
  %193 = load ptr, ptr %192, align 8, !tbaa !20
  %194 = icmp ne ptr %193, null
  br i1 %194, label %195, label %198

195:                                              ; preds = %191
  %196 = getelementptr inbounds nuw %struct.H5FD_log_fapl_t, ptr %9, i32 0, i32 0
  %197 = load ptr, ptr %196, align 8, !tbaa !20
  call void @free(ptr noundef %197) #9
  br label %198

198:                                              ; preds = %195, %191
  %199 = load i8, ptr %13, align 1, !tbaa !7, !range !9, !noundef !10
  %200 = trunc i8 %199 to i1
  %201 = xor i1 %200, true
  %202 = xor i1 %201, true
  %203 = zext i1 %202 to i32
  %204 = sext i32 %203 to i64
  %205 = call i64 @llvm.expect.i64(i64 %204, i64 1)
  %206 = icmp ne i64 %205, 0
  br i1 %206, label %207, label %209

207:                                              ; preds = %198
  %208 = call i32 @H5CX_pop(i1 noundef zeroext true)
  store i8 0, ptr %13, align 1, !tbaa !7
  br label %209

209:                                              ; preds = %207, %198
  %210 = load i8, ptr %14, align 1, !tbaa !7, !range !9, !noundef !10
  %211 = trunc i8 %210 to i1
  %212 = xor i1 %211, true
  %213 = xor i1 %212, true
  %214 = zext i1 %213 to i32
  %215 = sext i32 %214 to i64
  %216 = call i64 @llvm.expect.i64(i64 %215, i64 0)
  %217 = icmp ne i64 %216, 0
  br i1 %217, label %218, label %220

218:                                              ; preds = %209
  %219 = call i32 @H5E_dump_api_stack()
  br label %220

220:                                              ; preds = %218, %209
  %221 = load i32, ptr %11, align 4, !tbaa !3
  call void @llvm.lifetime.end.p0(i64 1, ptr %14) #9
  call void @llvm.lifetime.end.p0(i64 1, ptr %13) #9
  call void @llvm.lifetime.end.p0(i64 480, ptr %12) #9
  call void @llvm.lifetime.end.p0(i64 4, ptr %11) #9
  call void @llvm.lifetime.end.p0(i64 8, ptr %10) #9
  call void @llvm.lifetime.end.p0(i64 24, ptr %9) #9
  ret i32 %221
}