; Function Attrs: nounwind uwtable
define i32 @H5Pset_fapl_log(i64 noundef %0, ptr noundef %1, i64 noundef %2, i64 noundef %3) local_unnamed_addr #0 {
  %5 = alloca %struct.H5FD_log_fapl_t, align 8
  %6 = alloca %struct.H5CX_node_t, align 8
  call void @llvm.lifetime.start.p0(i64 24, ptr nonnull %5) #19
  call void @llvm.lifetime.start.p0(i64 480, ptr nonnull %6) #19
  call void @llvm.memset.p0.i64(ptr noundef nonnull align 8 dereferenceable(480) %6, i8 0, i64 480, i1 false)
  %7 = load i8, ptr @H5_libinit_g, align 1, !tbaa !3, !range !7, !noundef !8
  %8 = trunc nuw i8 %7 to i1
  %9 = load i8, ptr @H5_libterm_g, align 1, !range !7
  %10 = trunc nuw i8 %9 to i1
  %11 = select i1 %8, i1 true, i1 %10
  br i1 %11, label %19, label %12, !prof !9

12:                                               ; preds = %4
  %13 = tail call i32 @H5_init_library() #19
  %14 = icmp slt i32 %13, 0
  br i1 %14, label %15, label %._crit_edge, !prof !12

._crit_edge:                                      ; preds = %12
  %.pre = load i8, ptr @H5_libterm_g, align 1, !range !7
  br label %19

15:                                               ; preds = %12
  %16 = load i64, ptr @H5E_FUNC_g, align 8, !tbaa !10
  %17 = load i64, ptr @H5E_CANTINIT_g, align 8, !tbaa !10
  %18 = tail call i32 (ptr, ptr, i32, i64, i64, ptr, ...) @H5E_printf_stack(ptr noundef nonnull @.str, ptr noundef nonnull @__func__.H5Pset_fapl_log, i32 noundef 265, i64 noundef %16, i64 noundef %17, ptr noundef nonnull @.str.2) #19
  br label %.thread49

19:                                               ; preds = %._crit_edge, %4
  %20 = phi i8 [ %.pre, %._crit_edge ], [ %9, %4 ]
  %21 = load i8, ptr @H5FD_init_g, align 1, !tbaa !3, !range !7, !noundef !8
  %22 = trunc nuw i8 %21 to i1
  %23 = trunc nuw i8 %20 to i1
  %24 = select i1 %22, i1 true, i1 %23
  br i1 %24, label %32, label %25, !prof !9

25:                                               ; preds = %19
  store i8 1, ptr @H5FD_init_g, align 1, !tbaa !3
  %26 = tail call i32 @H5FD__init_package() #19
  %27 = icmp slt i32 %26, 0
  br i1 %27, label %28, label %32

28:                                               ; preds = %25
  store i8 0, ptr @H5FD_init_g, align 1, !tbaa !3
  %29 = load i64, ptr @H5E_FUNC_g, align 8, !tbaa !10
  %30 = load i64, ptr @H5E_CANTINIT_g, align 8, !tbaa !10
  %31 = tail call i32 (ptr, ptr, i32, i64, i64, ptr, ...) @H5E_printf_stack(ptr noundef nonnull @.str, ptr noundef nonnull @__func__.H5Pset_fapl_log, i32 noundef 265, i64 noundef %29, i64 noundef %30, ptr noundef nonnull @.str.3) #19
  br label %.thread49

32:                                               ; preds = %19, %25
  %33 = call i32 @H5CX_push(ptr noundef nonnull %6) #19
  %34 = icmp slt i32 %33, 0
  br i1 %34, label %35, label %39, !prof !12

35:                                               ; preds = %32
  %36 = load i64, ptr @H5E_FUNC_g, align 8, !tbaa !10
  %37 = load i64, ptr @H5E_CANTSET_g, align 8, !tbaa !10
  %38 = call i32 (ptr, ptr, i32, i64, i64, ptr, ...) @H5E_printf_stack(ptr noundef nonnull @.str, ptr noundef nonnull @__func__.H5Pset_fapl_log, i32 noundef 265, i64 noundef %36, i64 noundef %37, ptr noundef nonnull @.str.4) #19
  br label %.thread49

39:                                               ; preds = %32
  %40 = call i32 @H5E_clear_stack() #19
  store i64 0, ptr %5, align 8
  %41 = load i64, ptr @H5P_CLS_FILE_ACCESS_ID_g, align 8, !tbaa !10
  %42 = call ptr @H5P_object_verify(i64 noundef %0, i64 noundef %41, i1 noundef zeroext false) #19
  %43 = icmp eq ptr %42, null
  br i1 %43, label %44, label %48

44:                                               ; preds = %39
  %45 = load i64, ptr @H5E_ARGS_g, align 8, !tbaa !10
  %46 = load i64, ptr @H5E_BADTYPE_g, align 8, !tbaa !10
  %47 = call i32 (ptr, ptr, i32, i64, i64, ptr, ...) @H5E_printf_stack(ptr noundef nonnull @.str, ptr noundef nonnull @__func__.H5Pset_fapl_log, i32 noundef 274, i64 noundef %45, i64 noundef %46, ptr noundef nonnull @.str.5) #19
  br label %.thread57

48:                                               ; preds = %39
  %.not = icmp eq ptr %1, null
  br i1 %.not, label %57, label %49

49:                                               ; preds = %48
  %50 = call noalias ptr @H5MM_xstrdup(ptr noundef nonnull %1) #19
  store ptr %50, ptr %5, align 8, !tbaa !13
  %51 = icmp eq ptr %50, null
  br i1 %51, label %52, label %57

52:                                               ; preds = %49
  %53 = load i64, ptr @H5E_RESOURCE_g, align 8, !tbaa !10
  %54 = load i64, ptr @H5E_NOSPACE_g, align 8, !tbaa !10
  %55 = call i32 (ptr, ptr, i32, i64, i64, ptr, ...) @H5E_printf_stack(ptr noundef nonnull @.str, ptr noundef nonnull @__func__.H5Pset_fapl_log, i32 noundef 282, i64 noundef %53, i64 noundef %54, ptr noundef nonnull @.str.6) #19
  br label %.thread57

.thread57:                                        ; preds = %52, %44
  %56 = call i32 @H5CX_pop(i1 noundef zeroext true) #19
  br label %.thread49

57:                                               ; preds = %48, %49
  %58 = getelementptr inbounds nuw i8, ptr %5, i64 8
  store i64 %2, ptr %58, align 8, !tbaa !18
  %59 = getelementptr inbounds nuw i8, ptr %5, i64 16
  store i64 %3, ptr %59, align 8, !tbaa !19
  %60 = load i64, ptr @H5FD_LOG_id_g, align 8, !tbaa !10
  %61 = call i32 @H5P_set_driver(ptr noundef nonnull %42, i64 noundef %60, ptr noundef nonnull %5, ptr noundef null) #19
  %.pre19 = load ptr, ptr %5, align 8, !tbaa !13
  %.not18 = icmp eq ptr %.pre19, null
  br i1 %.not18, label %63, label %.thread54

.thread54:                                        ; preds = %57
  call void @free(ptr noundef nonnull %.pre19) #19
  %62 = call i32 @H5CX_pop(i1 noundef zeroext true) #19
  br label %66

63:                                               ; preds = %57
  %64 = call i32 @H5CX_pop(i1 noundef zeroext true) #19
  br label %66

.thread49:                                        ; preds = %15, %28, %35, %.thread57
  %65 = call i32 @H5E_dump_api_stack() #19
  br label %66

66:                                               ; preds = %63, %.thread54, %.thread49
  %.014244352 = phi i32 [ -1, %.thread49 ], [ %61, %63 ], [ %61, %.thread54 ]
  call void @llvm.lifetime.end.p0(i64 480, ptr nonnull %6) #19
  call void @llvm.lifetime.end.p0(i64 24, ptr nonnull %5) #19
  ret i32 %.014244352
}